target datalayout = "e-m:e-p270:32:32-p271:32:32-p272:64:64-i64:64-i128:128-f80:128-n8:16:32:64-S128"
target triple = "x86_64-pc-linux-gnu"

%class.OopHandle = type { ptr }
%class.JvmtiThreadState = type { ptr, ptr, %class.OopHandle, ptr, i8, i8, i8, i8, i8, i32, i32, ptr, i32, ptr, i32, i32, %class.JvmtiThreadEventEnable, ptr, ptr, ptr, ptr, ptr, ptr, ptr, ptr, i8, i32, i32, %union.jvalue, ptr }
%class.JvmtiThreadEventEnable = type { %class.JvmtiEventEnabled }
%class.JvmtiEventEnabled = type { i64 }
%union.jvalue = type { i64 }
%class.JvmtiEnvThreadStateIterator = type { ptr }
%class.Thread = type { %class.ThreadShadow.base, i64, [43 x i64], ptr, ptr, i32, ptr, i64, i64, %class.ThreadLocalAllocBuffer, i64, %class.ThreadHeapSampler, %class.ThreadStatisticalInfo, %class.JfrThreadLocal, ptr, ptr, ptr, ptr, ptr, ptr, i64, i32, i32, ptr, i32, i32, i32, i32, i8, ptr }
%class.ThreadShadow.base = type <{ ptr, ptr, ptr, i32 }>
%class.ThreadLocalAllocBuffer = type <{ ptr, ptr, ptr, ptr, ptr, i64, i64, i64, i64, i32, i32, i32, i32, i64, %class.AdaptiveWeightedAverage, [4 x i8] }>
%class.AdaptiveWeightedAverage = type { float, i32, i32, i8, float }
%class.ThreadHeapSampler = type { i64 }
%class.ThreadStatisticalInfo = type { i64, i64 }
%class.JfrThreadLocal = type <{ ptr, ptr, ptr, ptr, ptr, ptr, ptr, ptr, ptr, ptr, %class.RefCountHandle, i64, i64, i64, i64, i64, i64, i64, i64, i64, i64, i64, i32, i32, i32, i16, i8, i8, i8, i8, i8, [5 x i8] }>
%class.RefCountHandle = type { ptr }
%class.JvmtiEnvThreadState = type { ptr, ptr, ptr, ptr, i32, i8, i8, %class.JvmtiEnvThreadEventEnable, ptr, ptr }
%class.JvmtiEnvThreadEventEnable = type { %class.JvmtiEventEnabled, %class.JvmtiEventEnabled }

@_ZN6Thread12_thr_currentE = external thread_local global ptr, align 8

; Function Attrs: mustprogress nounwind uwtable
define linkonce_odr hidden noundef ptr @_ZN6Thread15current_or_nullEv() #1 comdat align 2 {
  %1 = call align 8 ptr @llvm.threadlocal.address.p0(ptr align 8 @_ZN6Thread12_thr_currentE)
  %2 = load ptr, ptr %1, align 8
  ret ptr %2
}

; Function Attrs: mustprogress nounwind uwtable
define linkonce_odr hidden void @_ZN6Thread27leaving_jvmti_env_iterationEv(ptr noundef nonnull align 8 dereferenceable(888) %0) #1 comdat align 2 {
  %2 = alloca ptr, align 8
  store ptr %0, ptr %2, align 8
  %3 = load ptr, ptr %2, align 8
  %4 = getelementptr inbounds %class.Thread, ptr %3, i32 0, i32 22
  %5 = load volatile i32, ptr %4, align 4
  %6 = add nsw i32 %5, -1
  store volatile i32 %6, ptr %4, align 4
  ret void
}

; Function Attrs: mustprogress nounwind uwtable
define linkonce_odr hidden noundef ptr @_ZN19JvmtiEnvThreadState4nextEv(ptr noundef nonnull align 8 dereferenceable(72) %0) #1 comdat align 2 {
  %2 = alloca ptr, align 8
  store ptr %0, ptr %2, align 8
  %3 = load ptr, ptr %2, align 8
  %4 = getelementptr inbounds %class.JvmtiEnvThreadState, ptr %3, i32 0, i32 2
  %5 = load ptr, ptr %4, align 8
  ret ptr %5
}

; Function Attrs: mustprogress nounwind uwtable
define linkonce_odr hidden noundef ptr @_ZN16JvmtiThreadState21head_env_thread_stateEv(ptr noundef nonnull align 8 dereferenceable(184) %0) #1 comdat align 2 {
  %2 = alloca ptr, align 8
  store ptr %0, ptr %2, align 8
  %3 = load ptr, ptr %2, align 8
  %4 = getelementptr inbounds %class.JvmtiThreadState, ptr %3, i32 0, i32 17
  %5 = load ptr, ptr %4, align 8
  ret ptr %5
}

; Function Attrs: mustprogress nounwind uwtable
define linkonce_odr hidden void @_ZN6Thread28entering_jvmti_env_iterationEv(ptr noundef nonnull align 8 dereferenceable(888) %0) #1 comdat align 2 {
  %2 = alloca ptr, align 8
  store ptr %0, ptr %2, align 8
  %3 = load ptr, ptr %2, align 8
  %4 = getelementptr inbounds %class.Thread, ptr %3, i32 0, i32 22
  %5 = load volatile i32, ptr %4, align 4
  %6 = add nsw i32 %5, 1
  store volatile i32 %6, ptr %4, align 4
  ret void
}

; Function Attrs: mustprogress nounwind uwtable
define linkonce_odr hidden noundef ptr @_ZN6Thread7currentEv() #1 comdat align 2 {
  %1 = alloca ptr, align 8
  %2 = call noundef ptr @_ZN6Thread15current_or_nullEv()
  store ptr %2, ptr %1, align 8
  %3 = load ptr, ptr %1, align 8
  ret ptr %3
}

; Function Attrs: mustprogress nounwind uwtable
define linkonce_odr hidden void @_ZN27JvmtiEnvThreadStateIteratorD2Ev(ptr noundef nonnull align 8 dereferenceable(8) %0) unnamed_addr #1 comdat align 2 {
  %2 = alloca ptr, align 8
  store ptr %0, ptr %2, align 8
  %3 = call noundef ptr @_ZN6Thread7currentEv()
  call void @_ZN6Thread27leaving_jvmti_env_iterationEv(ptr noundef nonnull align 8 dereferenceable(888) %3)
  ret void
}

; Function Attrs: mustprogress nounwind uwtable
define linkonce_odr hidden void @_ZN19JvmtiEnvThreadState8set_nextEPS_(ptr noundef nonnull align 8 dereferenceable(72) %0, ptr noundef %1) #1 comdat align 2 {
  %3 = alloca ptr, align 8
  %4 = alloca ptr, align 8
  store ptr %0, ptr %3, align 8
  store ptr %1, ptr %4, align 8
  %5 = load ptr, ptr %3, align 8
  %6 = load ptr, ptr %4, align 8
  %7 = getelementptr inbounds %class.JvmtiEnvThreadState, ptr %5, i32 0, i32 2
  store ptr %6, ptr %7, align 8
  ret void
}

; Function Attrs: mustprogress nounwind uwtable
define linkonce_odr hidden void @_ZN16JvmtiThreadState25set_head_env_thread_stateEP19JvmtiEnvThreadState(ptr noundef nonnull align 8 dereferenceable(184) %0, ptr noundef %1) #1 comdat align 2 {
  %3 = alloca ptr, align 8
  %4 = alloca ptr, align 8
  store ptr %0, ptr %3, align 8
  store ptr %1, ptr %4, align 8
  %5 = load ptr, ptr %3, align 8
  %6 = load ptr, ptr %4, align 8
  %7 = getelementptr inbounds %class.JvmtiThreadState, ptr %5, i32 0, i32 17
  store ptr %6, ptr %7, align 8
  ret void
}

; Function Attrs: mustprogress nounwind uwtable
define linkonce_odr hidden noundef ptr @_ZN27JvmtiEnvThreadStateIterator4nextEP19JvmtiEnvThreadState(ptr noundef nonnull align 8 dereferenceable(8) %0, ptr noundef %1) #1 comdat align 2 {
  %3 = alloca ptr, align 8
  %4 = alloca ptr, align 8
  store ptr %0, ptr %3, align 8
  store ptr %1, ptr %4, align 8
  %5 = load ptr, ptr %4, align 8
  %6 = call noundef ptr @_ZN19JvmtiEnvThreadState4nextEv(ptr noundef nonnull align 8 dereferenceable(72) %5)
  ret ptr %6
}

; Function Attrs: mustprogress nounwind uwtable
define linkonce_odr hidden noundef ptr @_ZN27JvmtiEnvThreadStateIterator5firstEv(ptr noundef nonnull align 8 dereferenceable(8) %0) #1 comdat align 2 {
  %2 = alloca ptr, align 8
  store ptr %0, ptr %2, align 8
  %3 = load ptr, ptr %2, align 8
  %4 = getelementptr inbounds %class.JvmtiEnvThreadStateIterator, ptr %3, i32 0, i32 0
  %5 = load ptr, ptr %4, align 8
  %6 = call noundef ptr @_ZN16JvmtiThreadState21head_env_thread_stateEv(ptr noundef nonnull align 8 dereferenceable(184) %5)
  ret ptr %6
}

; Function Attrs: mustprogress nounwind uwtable
define linkonce_odr hidden void @_ZN27JvmtiEnvThreadStateIteratorC2EP16JvmtiThreadState(ptr noundef nonnull align 8 dereferenceable(8) %0, ptr noundef %1) unnamed_addr #1 comdat align 2 {
  %3 = alloca ptr, align 8
  %4 = alloca ptr, align 8
  store ptr %0, ptr %3, align 8
  store ptr %1, ptr %4, align 8
  %5 = load ptr, ptr %3, align 8
  %6 = load ptr, ptr %4, align 8
  %7 = getelementptr inbounds %class.JvmtiEnvThreadStateIterator, ptr %5, i32 0, i32 0
  store ptr %6, ptr %7, align 8
  %8 = call noundef ptr @_ZN6Thread7currentEv()
  call void @_ZN6Thread28entering_jvmti_env_iterationEv(ptr noundef nonnull align 8 dereferenceable(888) %8)
  ret void
}

; Function Attrs: mustprogress nounwind uwtable
define hidden void @_ZN16JvmtiThreadState7add_envEP12JvmtiEnvBase(ptr noundef nonnull align 8 dereferenceable(184) %0, ptr noundef %1) #1 align 2 {
  %3 = alloca i64, align 8
  %4 = alloca i8, align 1
  %5 = alloca i64, align 8
  %6 = alloca ptr, align 8
  %7 = alloca ptr, align 8
  %8 = alloca ptr, align 8
  %9 = alloca %class.JvmtiEnvThreadStateIterator, align 8
  %10 = alloca ptr, align 8
  %11 = alloca ptr, align 8
  store ptr %0, ptr %6, align 8
  store ptr %1, ptr %7, align 8
  %12 = load ptr, ptr %6, align 8
  store i64 72, ptr %5, align 8
  %13 = load i64, ptr %5, align 8
  store i64 %13, ptr %3, align 8
  store i8 9, ptr %4, align 1
  %14 = load i64, ptr %3, align 8
  %15 = load i8, ptr %4, align 1
  %16 = call noundef ptr @_Z12AllocateHeapm8MEMFLAGSN17AllocFailStrategy13AllocFailEnumE(i64 noundef %14, i8 noundef zeroext %15, i32 noundef 0) #7
  %17 = load ptr, ptr %7, align 8
  call void @_ZN19JvmtiEnvThreadStateC1EP16JvmtiThreadStateP12JvmtiEnvBase(ptr noundef nonnull align 8 dereferenceable(72) %16, ptr noundef %12, ptr noundef %17)
  store ptr %16, ptr %8, align 8
  call void @_ZN27JvmtiEnvThreadStateIteratorC2EP16JvmtiThreadState(ptr noundef nonnull align 8 dereferenceable(8) %9, ptr noundef %12)
  store ptr null, ptr %10, align 8
  %18 = call noundef ptr @_ZN27JvmtiEnvThreadStateIterator5firstEv(ptr noundef nonnull align 8 dereferenceable(8) %9)
  store ptr %18, ptr %11, align 8
  br label %19

19:                                               ; preds = %24, %2
  %20 = load ptr, ptr %11, align 8
  %21 = icmp ne ptr %20, null
  br i1 %21, label %22, label %27

22:                                               ; preds = %19
  %23 = load ptr, ptr %11, align 8
  store ptr %23, ptr %10, align 8
  br label %24

24:                                               ; preds = %22
  %25 = load ptr, ptr %11, align 8
  %26 = call noundef ptr @_ZN27JvmtiEnvThreadStateIterator4nextEP19JvmtiEnvThreadState(ptr noundef nonnull align 8 dereferenceable(8) %9, ptr noundef %25)
  store ptr %26, ptr %11, align 8
  br label %19, !llvm.loop !8

27:                                               ; preds = %19
  %28 = load ptr, ptr %10, align 8
  %29 = icmp eq ptr %28, null
  br i1 %29, label %30, label %32

30:                                               ; preds = %27
  %31 = load ptr, ptr %8, align 8
  call void @_ZN16JvmtiThreadState25set_head_env_thread_stateEP19JvmtiEnvThreadState(ptr noundef nonnull align 8 dereferenceable(184) %12, ptr noundef %31)
  br label %35

32:                                               ; preds = %27
  %33 = load ptr, ptr %10, align 8
  %34 = load ptr, ptr %8, align 8
  call void @_ZN19JvmtiEnvThreadState8set_nextEPS_(ptr noundef nonnull align 8 dereferenceable(72) %33, ptr noundef %34)
  br label %35

35:                                               ; preds = %32, %30
  call void @_ZN27JvmtiEnvThreadStateIteratorD2Ev(ptr noundef nonnull align 8 dereferenceable(8) %9) #7
  ret void
}