; Function Attrs: mustprogress nounwind uwtable
define hidden void @_ZN16JvmtiThreadState7add_envEP12JvmtiEnvBase(ptr noundef nonnull align 8 dereferenceable(184) %0, ptr noundef %1) local_unnamed_addr #0 align 2 {
  %3 = tail call noundef ptr @_Z12AllocateHeapm8MEMFLAGSN17AllocFailStrategy13AllocFailEnumE(i64 noundef 72, i8 noundef zeroext 9, i32 noundef 0) #13
  tail call void @_ZN19JvmtiEnvThreadStateC1EP16JvmtiThreadStateP12JvmtiEnvBase(ptr noundef nonnull align 8 dereferenceable(72) %3, ptr noundef nonnull %0, ptr noundef %1) #13
  %4 = tail call align 8 ptr @llvm.threadlocal.address.p0(ptr align 8 @_ZN6Thread12_thr_currentE)
  %5 = load ptr, ptr %4, align 8
  %6 = getelementptr inbounds i8, ptr %5, i64 844
  %7 = load volatile i32, ptr %6, align 4
  %8 = add nsw i32 %7, 1
  store volatile i32 %8, ptr %6, align 4
  %9 = getelementptr inbounds i8, ptr %0, i64 88
  br label %10

10:                                               ; preds = %10, %2
  %.011 = phi ptr [ null, %2 ], [ %.0, %10 ]
  %.0.in = phi ptr [ %9, %2 ], [ %11, %10 ]
  %.0 = load ptr, ptr %.0.in, align 8
  %.not = icmp eq ptr %.0, null
  %11 = getelementptr inbounds i8, ptr %.0, i64 16
  br i1 %.not, label %12, label %10, !llvm.loop !6

12:                                               ; preds = %10
  %13 = icmp eq ptr %.011, null
  %14 = getelementptr inbounds i8, ptr %.011, i64 16
  %.sink = select i1 %13, ptr %9, ptr %14
  store ptr %3, ptr %.sink, align 8
  %15 = load volatile i32, ptr %6, align 4
  %16 = add nsw i32 %15, -1
  store volatile i32 %16, ptr %6, align 4
  ret void
}